target datalayout = "e-m:e-p270:32:32-p271:32:32-p272:64:64-i64:64-i128:128-f80:128-n8:16:32:64-S128"
target triple = "x86_64-unknown-linux-gnu"

%"class.std::__shared_count" = type { ptr }
%"class.std::vector.0" = type { %"struct.std::_Vector_base.1" }
%"struct.std::_Vector_base.1" = type { %"struct.std::_Vector_base<std::__cxx11::basic_string<char>, std::allocator<std::__cxx11::basic_string<char>>>::_Vector_impl" }
%"struct.std::_Vector_base<std::__cxx11::basic_string<char>, std::allocator<std::__cxx11::basic_string<char>>>::_Vector_impl" = type { %"struct.std::_Vector_base<std::__cxx11::basic_string<char>, std::allocator<std::__cxx11::basic_string<char>>>::_Vector_impl_data" }
%"struct.std::_Vector_base<std::__cxx11::basic_string<char>, std::allocator<std::__cxx11::basic_string<char>>>::_Vector_impl_data" = type { ptr, ptr, ptr }
%"class.facebook::velox::type::fbhive::HiveTypeParser" = type { %"class.facebook::velox::type::TypeParser", %"class.std::vector", %"class.folly::Range" }
%"class.facebook::velox::type::TypeParser" = type { ptr }
%"class.std::vector" = type { %"struct.std::_Vector_base" }
%"struct.std::_Vector_base" = type { %"struct.std::_Vector_base<std::unique_ptr<facebook::velox::type::fbhive::TokenMetadata>, std::allocator<std::unique_ptr<facebook::velox::type::fbhive::TokenMetadata>>>::_Vector_impl" }
%"struct.std::_Vector_base<std::unique_ptr<facebook::velox::type::fbhive::TokenMetadata>, std::allocator<std::unique_ptr<facebook::velox::type::fbhive::TokenMetadata>>>::_Vector_impl" = type { %"struct.std::_Vector_base<std::unique_ptr<facebook::velox::type::fbhive::TokenMetadata>, std::allocator<std::unique_ptr<facebook::velox::type::fbhive::TokenMetadata>>>::_Vector_impl_data" }
%"struct.std::_Vector_base<std::unique_ptr<facebook::velox::type::fbhive::TokenMetadata>, std::allocator<std::unique_ptr<facebook::velox::type::fbhive::TokenMetadata>>>::_Vector_impl_data" = type { ptr, ptr, ptr }
%"class.folly::Range" = type { ptr, ptr }
%"class.std::shared_ptr" = type { %"class.std::__shared_ptr" }
%"class.std::__shared_ptr" = type { ptr, %"class.std::__shared_count" }
%"struct.facebook::velox::type::fbhive::Result" = type { %"class.std::shared_ptr" }
%"struct.facebook::velox::type::fbhive::Token" = type { ptr, %"class.folly::Range" }
%"struct.facebook::velox::type::fbhive::TokenMetadata" = type <{ i32, i8, [3 x i8], %"class.std::vector.0", i8, [7 x i8] }>
%"struct.facebook::velox::type::fbhive::TokenAndRemaining" = type { %"struct.facebook::velox::type::fbhive::Token", %"class.folly::Range" }
%"class.std::_Sp_counted_base" = type { ptr, i32, i32 }

@__libc_single_threaded = external global i8, align 1

; Function Attrs: noreturn nounwind uwtable
define linkonce_odr hidden void @__clang_call_terminate(ptr noundef %0) #8 comdat {
  %2 = call ptr @__cxa_begin_catch(ptr %0) #9
  call void @_ZSt9terminatev() #18
  unreachable
}

; Function Attrs: mustprogress uwtable
define linkonce_odr void @_ZNSt16_Sp_counted_baseILN9__gnu_cxx12_Lock_policyE2EE15_M_add_ref_copyEv(ptr noundef nonnull align 8 dereferenceable(16) %this) #0 comdat align 2 {
entry:
  %__mem.addr.i4 = alloca ptr, align 8
  %__val.addr.i5 = alloca i32, align 4
  %.atomictmp.i = alloca i32, align 4
  %atomic-temp.i = alloca i32, align 4
  %__mem.addr.i2 = alloca ptr, align 8
  %__val.addr.i3 = alloca i32, align 4
  %__mem.addr.i = alloca ptr, align 8
  %__val.addr.i = alloca i32, align 4
  %this.addr = alloca ptr, align 8
  store ptr %this, ptr %this.addr, align 8
  %this1 = load ptr, ptr %this.addr, align 8
  %_M_use_count = getelementptr inbounds %"class.std::_Sp_counted_base", ptr %this1, i32 0, i32 1
  store ptr %_M_use_count, ptr %__mem.addr.i, align 8
  store i32 1, ptr %__val.addr.i, align 4
  %0 = load i8, ptr @__libc_single_threaded, align 1
  %tobool.i = icmp ne i8 %0, 0
  br i1 %tobool.i, label %if.then.i, label %if.else.i

if.then.i:                                        ; preds = %entry
  %1 = load ptr, ptr %__mem.addr.i, align 8
  %2 = load i32, ptr %__val.addr.i, align 4
  store ptr %1, ptr %__mem.addr.i2, align 8
  store i32 %2, ptr %__val.addr.i3, align 4
  %3 = load i32, ptr %__val.addr.i3, align 4
  %4 = load ptr, ptr %__mem.addr.i2, align 8
  %5 = load i32, ptr %4, align 4
  %add.i = add nsw i32 %5, %3
  store i32 %add.i, ptr %4, align 4
  br label %_ZN9__gnu_cxx21__atomic_add_dispatchEPii.exit

if.else.i:                                        ; preds = %entry
  %6 = load ptr, ptr %__mem.addr.i, align 8
  %7 = load i32, ptr %__val.addr.i, align 4
  store ptr %6, ptr %__mem.addr.i4, align 8
  store i32 %7, ptr %__val.addr.i5, align 4
  %8 = load ptr, ptr %__mem.addr.i4, align 8
  %9 = load i32, ptr %__val.addr.i5, align 4
  store i32 %9, ptr %.atomictmp.i, align 4
  %10 = load i32, ptr %.atomictmp.i, align 4
  %11 = atomicrmw volatile add ptr %8, i32 %10 acq_rel, align 4
  store i32 %11, ptr %atomic-temp.i, align 4
  br label %_ZN9__gnu_cxx21__atomic_add_dispatchEPii.exit

_ZN9__gnu_cxx21__atomic_add_dispatchEPii.exit:    ; preds = %if.else.i, %if.then.i
  ret void
}

; Function Attrs: mustprogress nounwind uwtable
define linkonce_odr void @_ZNSt14__shared_countILN9__gnu_cxx12_Lock_policyE2EEC2ERKS2_(ptr noundef nonnull align 8 dereferenceable(8) %this, ptr noundef nonnull align 8 dereferenceable(8) %__r) unnamed_addr #1 comdat align 2 personality ptr @__gxx_personality_v0 {
entry:
  %this.addr = alloca ptr, align 8
  %__r.addr = alloca ptr, align 8
  store ptr %this, ptr %this.addr, align 8
  store ptr %__r, ptr %__r.addr, align 8
  %this1 = load ptr, ptr %this.addr, align 8
  %_M_pi = getelementptr inbounds %"class.std::__shared_count", ptr %this1, i32 0, i32 0
  %0 = load ptr, ptr %__r.addr, align 8
  %_M_pi2 = getelementptr inbounds %"class.std::__shared_count", ptr %0, i32 0, i32 0
  %1 = load ptr, ptr %_M_pi2, align 8
  store ptr %1, ptr %_M_pi, align 8
  %_M_pi3 = getelementptr inbounds %"class.std::__shared_count", ptr %this1, i32 0, i32 0
  %2 = load ptr, ptr %_M_pi3, align 8
  %cmp = icmp ne ptr %2, null
  br i1 %cmp, label %if.then, label %if.end

if.then:                                          ; preds = %entry
  %_M_pi4 = getelementptr inbounds %"class.std::__shared_count", ptr %this1, i32 0, i32 0
  %3 = load ptr, ptr %_M_pi4, align 8
  invoke void @_ZNSt16_Sp_counted_baseILN9__gnu_cxx12_Lock_policyE2EE15_M_add_ref_copyEv(ptr noundef nonnull align 8 dereferenceable(16) %3)
          to label %invoke.cont unwind label %terminate.lpad

invoke.cont:                                      ; preds = %if.then
  br label %if.end

if.end:                                           ; preds = %invoke.cont, %entry
  ret void

terminate.lpad:                                   ; preds = %if.then
  %4 = landingpad { ptr, i32 }
          catch ptr null
  %5 = extractvalue { ptr, i32 } %4, 0
  call void @__clang_call_terminate(ptr %5) #18
  unreachable
}

; Function Attrs: mustprogress nounwind uwtable
define linkonce_odr void @_ZNSt12__shared_ptrIKN8facebook5velox4TypeELN9__gnu_cxx12_Lock_policyE2EEC2ERKS6_(ptr noundef nonnull align 8 dereferenceable(16) %this, ptr noundef nonnull align 8 dereferenceable(16) %0) unnamed_addr #1 comdat align 2 {
entry:
  %this.addr = alloca ptr, align 8
  %.addr = alloca ptr, align 8
  store ptr %this, ptr %this.addr, align 8
  store ptr %0, ptr %.addr, align 8
  %this1 = load ptr, ptr %this.addr, align 8
  %_M_ptr = getelementptr inbounds %"class.std::__shared_ptr", ptr %this1, i32 0, i32 0
  %1 = load ptr, ptr %.addr, align 8
  %_M_ptr2 = getelementptr inbounds %"class.std::__shared_ptr", ptr %1, i32 0, i32 0
  %2 = load ptr, ptr %_M_ptr2, align 8
  store ptr %2, ptr %_M_ptr, align 8
  %_M_refcount = getelementptr inbounds %"class.std::__shared_ptr", ptr %this1, i32 0, i32 1
  %3 = load ptr, ptr %.addr, align 8
  %_M_refcount3 = getelementptr inbounds %"class.std::__shared_ptr", ptr %3, i32 0, i32 1
  call void @_ZNSt14__shared_countILN9__gnu_cxx12_Lock_policyE2EEC2ERKS2_(ptr noundef nonnull align 8 dereferenceable(8) %_M_refcount, ptr noundef nonnull align 8 dereferenceable(8) %_M_refcount3) #9
  ret void
}

; Function Attrs: mustprogress nounwind uwtable
define noundef i32 @_ZNK8facebook5velox4type6fbhive5Token9tokenTypeEv(ptr noundef nonnull align 8 dereferenceable(24) %this) #1 align 2 {
entry:
  %this.addr = alloca ptr, align 8
  store ptr %this, ptr %this.addr, align 8
  %this1 = load ptr, ptr %this.addr, align 8
  %metadata = getelementptr inbounds %"struct.facebook::velox::type::fbhive::Token", ptr %this1, i32 0, i32 0
  %0 = load ptr, ptr %metadata, align 8
  %tokenType = getelementptr inbounds %"struct.facebook::velox::type::fbhive::TokenMetadata", ptr %0, i32 0, i32 0
  %1 = load i32, ptr %tokenType, align 8
  ret i32 %1
}

; Function Attrs: mustprogress nounwind uwtable
define linkonce_odr void @_ZNSt10shared_ptrIKN8facebook5velox4TypeEEC2ERKS4_(ptr noundef nonnull align 8 dereferenceable(16) %this, ptr noundef nonnull align 8 dereferenceable(16) %0) unnamed_addr #1 comdat align 2 {
entry:
  %this.addr = alloca ptr, align 8
  %.addr = alloca ptr, align 8
  store ptr %this, ptr %this.addr, align 8
  store ptr %0, ptr %.addr, align 8
  %this1 = load ptr, ptr %this.addr, align 8
  %1 = load ptr, ptr %.addr, align 8
  call void @_ZNSt12__shared_ptrIKN8facebook5velox4TypeELN9__gnu_cxx12_Lock_policyE2EEC2ERKS6_(ptr noundef nonnull align 8 dereferenceable(16) %this1, ptr noundef nonnull align 8 dereferenceable(16) %1) #9
  ret void
}

; Function Attrs: mustprogress uwtable
define noundef i32 @_ZNK8facebook5velox4type6fbhive14HiveTypeParser9lookAheadEv(ptr noundef nonnull align 8 dereferenceable(48) %this) #0 align 2 {
entry:
  %this.addr = alloca ptr, align 8
  %ref.tmp = alloca %"struct.facebook::velox::type::fbhive::TokenAndRemaining", align 8
  %agg.tmp = alloca %"class.folly::Range", align 8
  store ptr %this, ptr %this.addr, align 8
  %this1 = load ptr, ptr %this.addr, align 8
  %remaining_ = getelementptr inbounds %"class.facebook::velox::type::fbhive::HiveTypeParser", ptr %this1, i32 0, i32 2
  call void @llvm.memcpy.p0.p0.i64(ptr align 8 %agg.tmp, ptr align 8 %remaining_, i64 16, i1 false)
  %0 = getelementptr inbounds { ptr, ptr }, ptr %agg.tmp, i32 0, i32 0
  %1 = load ptr, ptr %0, align 8
  %2 = getelementptr inbounds { ptr, ptr }, ptr %agg.tmp, i32 0, i32 1
  %3 = load ptr, ptr %2, align 8
  call void @_ZNK8facebook5velox4type6fbhive14HiveTypeParser9nextTokenEN5folly5RangeIPKcEEb(ptr sret(%"struct.facebook::velox::type::fbhive::TokenAndRemaining") align 8 %ref.tmp, ptr noundef nonnull align 8 dereferenceable(48) %this1, ptr %1, ptr %3, i1 noundef zeroext false)
  %call = call noundef i32 @_ZNK8facebook5velox4type6fbhive5Token9tokenTypeEv(ptr noundef nonnull align 8 dereferenceable(24) %ref.tmp)
  ret i32 %call
}

; Function Attrs: mustprogress nounwind uwtable
define linkonce_odr noundef i64 @_ZNK5folly5RangeIPKcE4sizeEv(ptr noundef nonnull align 8 dereferenceable(16) %this) #1 comdat align 2 {
entry:
  %this.addr = alloca ptr, align 8
  store ptr %this, ptr %this.addr, align 8
  %this1 = load ptr, ptr %this.addr, align 8
  %e_ = getelementptr inbounds %"class.folly::Range", ptr %this1, i32 0, i32 1
  %0 = load ptr, ptr %e_, align 8
  %b_ = getelementptr inbounds %"class.folly::Range", ptr %this1, i32 0, i32 0
  %1 = load ptr, ptr %b_, align 8
  %sub.ptr.lhs.cast = ptrtoint ptr %0 to i64
  %sub.ptr.rhs.cast = ptrtoint ptr %1 to i64
  %sub.ptr.sub = sub i64 %sub.ptr.lhs.cast, %sub.ptr.rhs.cast
  ret i64 %sub.ptr.sub
}

; Function Attrs: mustprogress nounwind uwtable
define linkonce_odr void @_ZN5folly5RangeIPKcEC2ISaIcES2_TnNS_6detail13IsCharPointerIT0_E10const_typeELi0EEERKNSt7__cxx1112basic_stringIcSt11char_traitsIcET_EE(ptr noundef nonnull align 8 dereferenceable(16) %this, ptr noundef nonnull align 8 dereferenceable(32) %str) unnamed_addr #1 comdat align 2 {
entry:
  %this.addr = alloca ptr, align 8
  %str.addr = alloca ptr, align 8
  store ptr %this, ptr %this.addr, align 8
  store ptr %str, ptr %str.addr, align 8
  %this1 = load ptr, ptr %this.addr, align 8
  %b_ = getelementptr inbounds %"class.folly::Range", ptr %this1, i32 0, i32 0
  %0 = load ptr, ptr %str.addr, align 8
  %call = call noundef ptr @_ZNKSt7__cxx1112basic_stringIcSt11char_traitsIcESaIcEE4dataEv(ptr noundef nonnull align 8 dereferenceable(32) %0) #9
  store ptr %call, ptr %b_, align 8
  %e_ = getelementptr inbounds %"class.folly::Range", ptr %this1, i32 0, i32 1
  %b_2 = getelementptr inbounds %"class.folly::Range", ptr %this1, i32 0, i32 0
  %1 = load ptr, ptr %b_2, align 8
  %2 = load ptr, ptr %str.addr, align 8
  %call3 = call noundef i64 @_ZNKSt7__cxx1112basic_stringIcSt11char_traitsIcESaIcEE4sizeEv(ptr noundef nonnull align 8 dereferenceable(32) %2) #9
  %add.ptr = getelementptr inbounds i8, ptr %1, i64 %call3
  store ptr %add.ptr, ptr %e_, align 8
  ret void
}

; Function Attrs: mustprogress uwtable
define void @_ZN8facebook5velox4type6fbhive14HiveTypeParser5parseERKNSt7__cxx1112basic_stringIcSt11char_traitsIcESaIcEEE(ptr noalias sret(%"class.std::shared_ptr") align 8 %agg.result, ptr noundef nonnull align 8 dereferenceable(48) %this, ptr noundef nonnull align 8 dereferenceable(32) %ser) unnamed_addr #0 align 2 personality ptr @__gxx_personality_v0 {
entry:
  %result.ptr = alloca ptr, align 8
  %this.addr = alloca ptr, align 8
  %ser.addr = alloca ptr, align 8
  %ref.tmp = alloca %"class.folly::Range", align 8
  %result = alloca %"struct.facebook::velox::type::fbhive::Result", align 8
  %exn.slot = alloca ptr, align 8
  %ehselector.slot = alloca i32, align 4
  store ptr %agg.result, ptr %result.ptr, align 8
  store ptr %this, ptr %this.addr, align 8
  store ptr %ser, ptr %ser.addr, align 8
  %this1 = load ptr, ptr %this.addr, align 8
  %0 = load ptr, ptr %ser.addr, align 8
  call void @_ZN5folly5RangeIPKcEC2ISaIcES2_TnNS_6detail13IsCharPointerIT0_E10const_typeELi0EEERKNSt7__cxx1112basic_stringIcSt11char_traitsIcET_EE(ptr noundef nonnull align 8 dereferenceable(16) %ref.tmp, ptr noundef nonnull align 8 dereferenceable(32) %0)
  %remaining_ = getelementptr inbounds %"class.facebook::velox::type::fbhive::HiveTypeParser", ptr %this1, i32 0, i32 2
  call void @llvm.memcpy.p0.p0.i64(ptr align 8 %remaining_, ptr align 8 %ref.tmp, i64 16, i1 false)
  call void @_ZN8facebook5velox4type6fbhive14HiveTypeParser9parseTypeEv(ptr sret(%"struct.facebook::velox::type::fbhive::Result") align 8 %result, ptr noundef nonnull align 8 dereferenceable(48) %this1)
  %remaining_2 = getelementptr inbounds %"class.facebook::velox::type::fbhive::HiveTypeParser", ptr %this1, i32 0, i32 2
  %call = invoke noundef i64 @_ZNK5folly5RangeIPKcE4sizeEv(ptr noundef nonnull align 8 dereferenceable(16) %remaining_2)
          to label %invoke.cont unwind label %lpad

invoke.cont:                                      ; preds = %entry
  %cmp = icmp eq i64 %call, 0
  br i1 %cmp, label %lor.end, label %lor.rhs

lor.rhs:                                          ; preds = %invoke.cont
  %call4 = invoke noundef i32 @_ZNK8facebook5velox4type6fbhive14HiveTypeParser9lookAheadEv(ptr noundef nonnull align 8 dereferenceable(48) %this1)
          to label %invoke.cont3 unwind label %lpad

invoke.cont3:                                     ; preds = %lor.rhs
  %cmp5 = icmp eq i32 20, %call4
  br label %lor.end

lor.end:                                          ; preds = %invoke.cont3, %invoke.cont
  %1 = phi i1 [ true, %invoke.cont ], [ %cmp5, %invoke.cont3 ]
  %lnot = xor i1 %1, true
  br i1 %lnot, label %if.then, label %if.end

if.then:                                          ; preds = %lor.end
  call void @llvm.trap()
  br label %if.end

lpad:                                             ; preds = %lor.rhs, %entry
  %2 = landingpad { ptr, i32 }
          cleanup
  %3 = extractvalue { ptr, i32 } %2, 0
  store ptr %3, ptr %exn.slot, align 8
  %4 = extractvalue { ptr, i32 } %2, 1
  store i32 %4, ptr %ehselector.slot, align 4
  call void @_ZN8facebook5velox4type6fbhive6ResultD2Ev(ptr noundef nonnull align 8 dereferenceable(16) %result) #9
  br label %eh.resume

if.end:                                           ; preds = %if.then, %lor.end
  %type = getelementptr inbounds %"struct.facebook::velox::type::fbhive::Result", ptr %result, i32 0, i32 0
  call void @_ZNSt10shared_ptrIKN8facebook5velox4TypeEEC2ERKS4_(ptr noundef nonnull align 8 dereferenceable(16) %agg.result, ptr noundef nonnull align 8 dereferenceable(16) %type) #9
  call void @_ZN8facebook5velox4type6fbhive6ResultD2Ev(ptr noundef nonnull align 8 dereferenceable(16) %result) #9
  ret void

eh.resume:                                        ; preds = %lpad
  %exn = load ptr, ptr %exn.slot, align 8
  %sel = load i32, ptr %ehselector.slot, align 4
  %lpad.val = insertvalue { ptr, i32 } poison, ptr %exn, 0
  %lpad.val6 = insertvalue { ptr, i32 } %lpad.val, i32 %sel, 1
  resume { ptr, i32 } %lpad.val6
}