; Function Attrs: mustprogress uwtable
define void @_ZN8facebook5velox4type6fbhive14HiveTypeParser5parseERKNSt7__cxx1112basic_stringIcSt11char_traitsIcESaIcEEE(ptr noalias nocapture writeonly sret(%"class.std::shared_ptr") align 8 %agg.result, ptr nocapture noundef nonnull align 8 dereferenceable(48) %this, ptr noundef nonnull align 8 dereferenceable(32) %ser) unnamed_addr #0 align 2 personality ptr @__gxx_personality_v0 {
entry:
  %ref.tmp.i = alloca %"struct.facebook::velox::type::fbhive::TokenAndRemaining", align 8
  %result = alloca %"struct.facebook::velox::type::fbhive::Result", align 16
  %call.i = tail call noundef ptr @_ZNKSt7__cxx1112basic_stringIcSt11char_traitsIcESaIcEE4dataEv(ptr noundef nonnull align 8 dereferenceable(32) %ser) #23
  %call3.i = tail call noundef i64 @_ZNKSt7__cxx1112basic_stringIcSt11char_traitsIcESaIcEE4sizeEv(ptr noundef nonnull align 8 dereferenceable(32) %ser) #23
  %add.ptr.i = getelementptr inbounds i8, ptr %call.i, i64 %call3.i
  %remaining_ = getelementptr inbounds i8, ptr %this, i64 32
  store ptr %call.i, ptr %remaining_, align 8
  %ref.tmp.sroa.2.0.remaining_.sroa_idx = getelementptr inbounds i8, ptr %this, i64 40
  store ptr %add.ptr.i, ptr %ref.tmp.sroa.2.0.remaining_.sroa_idx, align 8
  call void @_ZN8facebook5velox4type6fbhive14HiveTypeParser9parseTypeEv(ptr nonnull sret(%"struct.facebook::velox::type::fbhive::Result") align 8 %result, ptr noundef nonnull align 8 dereferenceable(48) %this)
  %0 = load ptr, ptr %ref.tmp.sroa.2.0.remaining_.sroa_idx, align 8
  %1 = load ptr, ptr %remaining_, align 8
  %cmp = icmp eq ptr %0, %1
  br i1 %cmp, label %if.end, label %lor.rhs

lor.rhs:                                          ; preds = %entry
  call void @llvm.lifetime.start.p0(i64 40, ptr nonnull %ref.tmp.i)
  invoke void @_ZNK8facebook5velox4type6fbhive14HiveTypeParser9nextTokenEN5folly5RangeIPKcEEb(ptr nonnull sret(%"struct.facebook::velox::type::fbhive::TokenAndRemaining") align 8 %ref.tmp.i, ptr noundef nonnull align 8 dereferenceable(48) %this, ptr %1, ptr %0, i1 noundef zeroext false)
          to label %invoke.cont3 unwind label %lpad

invoke.cont3:                                     ; preds = %lor.rhs
  %2 = load ptr, ptr %ref.tmp.i, align 8
  %3 = load i32, ptr %2, align 8
  call void @llvm.lifetime.end.p0(i64 40, ptr nonnull %ref.tmp.i)
  %cmp5.not = icmp eq i32 %3, 20
  br i1 %cmp5.not, label %if.end, label %if.then

if.then:                                          ; preds = %invoke.cont3
  call void @llvm.trap()
  unreachable

lpad:                                             ; preds = %lor.rhs
  %4 = landingpad { ptr, i32 }
          cleanup
  call void @_ZN8facebook5velox4type6fbhive6ResultD2Ev(ptr noundef nonnull align 8 dereferenceable(16) %result) #23
  resume { ptr, i32 } %4

if.end:                                           ; preds = %entry, %invoke.cont3
  %_M_refcount3.i.i = getelementptr inbounds i8, ptr %result, i64 8
  %5 = load <2 x ptr>, ptr %result, align 16
  store <2 x ptr> %5, ptr %agg.result, align 8
  %6 = extractelement <2 x ptr> %5, i64 1
  %cmp.not.i.i.i = icmp eq ptr %6, null
  br i1 %cmp.not.i.i.i, label %_ZN8facebook5velox4type6fbhive6ResultD2Ev.exit, label %if.then.i.i.i

if.then.i.i.i:                                    ; preds = %if.end
  %_M_use_count.i.i.i.i = getelementptr inbounds i8, ptr %6, i64 8
  %7 = load i8, ptr @__libc_single_threaded, align 1
  %tobool.i.not.i.i.i.i = icmp eq i8 %7, 0
  br i1 %tobool.i.not.i.i.i.i, label %if.else.i.i.i.i.i, label %if.then.i.i.i.i.i

if.then.i.i.i.i.i:                                ; preds = %if.then.i.i.i
  %8 = load i32, ptr %_M_use_count.i.i.i.i, align 4
  %add.i.i.i.i.i = add nsw i32 %8, 1
  store i32 %add.i.i.i.i.i, ptr %_M_use_count.i.i.i.i, align 4
  br label %_ZNSt10shared_ptrIKN8facebook5velox4TypeEEC2ERKS4_.exit

if.else.i.i.i.i.i:                                ; preds = %if.then.i.i.i
  %9 = atomicrmw volatile add ptr %_M_use_count.i.i.i.i, i32 1 acq_rel, align 4
  br label %_ZNSt10shared_ptrIKN8facebook5velox4TypeEEC2ERKS4_.exit

_ZNSt10shared_ptrIKN8facebook5velox4TypeEEC2ERKS4_.exit: ; preds = %if.then.i.i.i.i.i, %if.else.i.i.i.i.i
  %.pr = load ptr, ptr %_M_refcount3.i.i, align 8
  %cmp.not.i.i.i.i = icmp eq ptr %.pr, null
  br i1 %cmp.not.i.i.i.i, label %_ZN8facebook5velox4type6fbhive6ResultD2Ev.exit, label %if.then.i.i.i.i

if.then.i.i.i.i:                                  ; preds = %_ZNSt10shared_ptrIKN8facebook5velox4TypeEEC2ERKS4_.exit
  %_M_use_count.i.i.i.i.i = getelementptr inbounds i8, ptr %.pr, i64 8
  %10 = load atomic i64, ptr %_M_use_count.i.i.i.i.i acquire, align 8
  %cmp.i.i.i.i.i = icmp eq i64 %10, 4294967297
  %11 = trunc i64 %10 to i32
  br i1 %cmp.i.i.i.i.i, label %if.then.i.i.i.i.i2, label %if.end.i.i.i.i.i

if.then.i.i.i.i.i2:                               ; preds = %if.then.i.i.i.i
  store i32 0, ptr %_M_use_count.i.i.i.i.i, align 8
  %_M_weak_count.i.i.i.i.i = getelementptr inbounds i8, ptr %.pr, i64 12
  store i32 0, ptr %_M_weak_count.i.i.i.i.i, align 4
  %vtable.i.i.i.i.i = load ptr, ptr %.pr, align 8
  %vfn.i.i.i.i.i = getelementptr inbounds i8, ptr %vtable.i.i.i.i.i, i64 16
  %12 = load ptr, ptr %vfn.i.i.i.i.i, align 8
  call void %12(ptr noundef nonnull align 8 dereferenceable(16) %.pr) #23
  br label %if.end8.sink.split.i.i.i.i.i

if.end.i.i.i.i.i:                                 ; preds = %if.then.i.i.i.i
  %13 = load i8, ptr @__libc_single_threaded, align 1
  %tobool.i.i.not.i.i.i.i.i = icmp eq i8 %13, 0
  br i1 %tobool.i.i.not.i.i.i.i.i, label %if.else.i.i.i.i.i.i, label %if.then.i.i.i.i.i.i

if.then.i.i.i.i.i.i:                              ; preds = %if.end.i.i.i.i.i
  %add.i.i.i.i.i.i = add nsw i32 %11, -1
  store i32 %add.i.i.i.i.i.i, ptr %_M_use_count.i.i.i.i.i, align 4
  br label %_ZN9__gnu_cxx27__exchange_and_add_dispatchEPii.exit.i.i.i.i.i

if.else.i.i.i.i.i.i:                              ; preds = %if.end.i.i.i.i.i
  %14 = atomicrmw volatile add ptr %_M_use_count.i.i.i.i.i, i32 -1 acq_rel, align 4
  br label %_ZN9__gnu_cxx27__exchange_and_add_dispatchEPii.exit.i.i.i.i.i

_ZN9__gnu_cxx27__exchange_and_add_dispatchEPii.exit.i.i.i.i.i: ; preds = %if.else.i.i.i.i.i.i, %if.then.i.i.i.i.i.i
  %retval.i.0.i.i.i.i.i = phi i32 [ %11, %if.then.i.i.i.i.i.i ], [ %14, %if.else.i.i.i.i.i.i ]
  %cmp6.i.i.i.i.i = icmp eq i32 %retval.i.0.i.i.i.i.i, 1
  br i1 %cmp6.i.i.i.i.i, label %if.then7.i.i.i.i.i, label %_ZN8facebook5velox4type6fbhive6ResultD2Ev.exit

if.then7.i.i.i.i.i:                               ; preds = %_ZN9__gnu_cxx27__exchange_and_add_dispatchEPii.exit.i.i.i.i.i
  %vtable.i.i.i.i.i.i.i = load ptr, ptr %.pr, align 8
  %vfn.i.i.i.i.i.i.i = getelementptr inbounds i8, ptr %vtable.i.i.i.i.i.i.i, i64 16
  %15 = load ptr, ptr %vfn.i.i.i.i.i.i.i, align 8
  call void %15(ptr noundef nonnull align 8 dereferenceable(16) %.pr) #23
  %_M_weak_count.i.i.i.i.i.i.i = getelementptr inbounds i8, ptr %.pr, i64 12
  %16 = load i8, ptr @__libc_single_threaded, align 1
  %tobool.i.i.not.i.i.i.i.i.i.i = icmp eq i8 %16, 0
  br i1 %tobool.i.i.not.i.i.i.i.i.i.i, label %if.else.i.i.i.i.i.i.i.i, label %if.then.i.i.i.i.i.i.i.i

if.then.i.i.i.i.i.i.i.i:                          ; preds = %if.then7.i.i.i.i.i
  %17 = load i32, ptr %_M_weak_count.i.i.i.i.i.i.i, align 4
  %add.i.i.i.i.i.i.i.i = add nsw i32 %17, -1
  store i32 %add.i.i.i.i.i.i.i.i, ptr %_M_weak_count.i.i.i.i.i.i.i, align 4
  br label %_ZN9__gnu_cxx27__exchange_and_add_dispatchEPii.exit.i.i.i.i.i.i.i

if.else.i.i.i.i.i.i.i.i:                          ; preds = %if.then7.i.i.i.i.i
  %18 = atomicrmw volatile add ptr %_M_weak_count.i.i.i.i.i.i.i, i32 -1 acq_rel, align 4
  br label %_ZN9__gnu_cxx27__exchange_and_add_dispatchEPii.exit.i.i.i.i.i.i.i

_ZN9__gnu_cxx27__exchange_and_add_dispatchEPii.exit.i.i.i.i.i.i.i: ; preds = %if.else.i.i.i.i.i.i.i.i, %if.then.i.i.i.i.i.i.i.i
  %retval.i.0.i.i.i.i.i.i.i = phi i32 [ %17, %if.then.i.i.i.i.i.i.i.i ], [ %18, %if.else.i.i.i.i.i.i.i.i ]
  %cmp.i.i.i.i.i.i.i = icmp eq i32 %retval.i.0.i.i.i.i.i.i.i, 1
  br i1 %cmp.i.i.i.i.i.i.i, label %if.end8.sink.split.i.i.i.i.i, label %_ZN8facebook5velox4type6fbhive6ResultD2Ev.exit

if.end8.sink.split.i.i.i.i.i:                     ; preds = %_ZN9__gnu_cxx27__exchange_and_add_dispatchEPii.exit.i.i.i.i.i.i.i, %if.then.i.i.i.i.i2
  %vtable2.i.i.i.i.i.i.i = load ptr, ptr %.pr, align 8
  %vfn3.i.i.i.i.i.i.i = getelementptr inbounds i8, ptr %vtable2.i.i.i.i.i.i.i, i64 24
  %19 = load ptr, ptr %vfn3.i.i.i.i.i.i.i, align 8
  call void %19(ptr noundef nonnull align 8 dereferenceable(16) %.pr) #23
  br label %_ZN8facebook5velox4type6fbhive6ResultD2Ev.exit

_ZN8facebook5velox4type6fbhive6ResultD2Ev.exit:   ; preds = %if.end, %_ZNSt10shared_ptrIKN8facebook5velox4TypeEEC2ERKS4_.exit, %_ZN9__gnu_cxx27__exchange_and_add_dispatchEPii.exit.i.i.i.i.i, %_ZN9__gnu_cxx27__exchange_and_add_dispatchEPii.exit.i.i.i.i.i.i.i, %if.end8.sink.split.i.i.i.i.i
  ret void
}